ccopy_reg
_reconstructor
p1
(cexperiment
OptmavenExperiment
p2
c__builtin__
object
p3
NtRp4
(dp5
S'status'
p6
I2
sS'antigen_input_file'
p7
S'/gpfs/work/m/mfa5147/OptMAVEn_Zika/Optmaven-2.1.0/experiments/assemble2/structures/antigen_input.pdb'
p8
sS'grid_zAngle'
p9
cnumpy.core.multiarray
_reconstruct
p10
(cnumpy
ndarray
p11
(I0
tS'b'
tRp12
(I1
(I6
tcnumpy
dtype
p13
(S'f8'
I0
I1
tRp14
(I3
S'<'
NNNI-1
I-1
I0
tbI00
S'\x00\x00\x00\x00\x00\x00\x00\x00\x00\x00\x00\x00\x00\x00N@\x00\x00\x00\x00\x00\x00^@\x00\x00\x00\x00\x00\x80f@\x00\x00\x00\x00\x00\x00n@\x00\x00\x00\x00\x00\xc0r@'
tbsS'topology_files'
p15
(lp16
S'/gpfs/work/m/mfa5147/OptMAVEn_Zika/Optmaven-2.1.0/data/input_files/top_all27_prot_na.rtf'
p17
asS'file'
p18
S'/gpfs/work/m/mfa5147/OptMAVEn_Zika/Optmaven-2.1.0/experiments/assemble2/.temp/assemble2.pickle'
p19
sS'antigen_relaxed_name'
p20
S'relaxed_antigen'
p21
sS'antigen_chain_ids'
p22
(lp23
S'V'
asS'errors'
p24
S'/gpfs/work/m/mfa5147/OptMAVEn_Zika/Optmaven-2.1.0/experiments/assemble2/errors.txt'
p25
sS'antigen_input_molecule'
p26
g1
(cmolecules
Molecule
p27
g3
NtRp28
(dp29
S'ndim'
p30
I3
sS'name'
p31
S'antigen_input_file'
p32
sS'excluded_residue_ids'
p33
NsS'dims'
p34
(lp35
S'x'
aS'y'
aS'z'
asS'experiment'
p36
g4
sg18
g8
sS'exclude_hetero_ask'
p37
I00
sbsS'epitope_residue_ids'
p38
(dp39
S'V'
(lp40
(S' '
I20
S' '
tp41
a(S' '
I21
S' '
tp42
a(S' '
I22
S' '
tp43
assS'grid_z'
p44
g10
(g11
(I0
tS'b'
tRp45
(I1
(I11
tg14
I00
S'\x00\x00\x00\x00\x00\x00\x0e@\x00\x00\x00\x00\x00\x00\x14@\x00\x00\x00\x00\x00\x00\x19@\x00\x00\x00\x00\x00\x00\x1e@\x00\x00\x00\x00\x00\x80!@\x00\x00\x00\x00\x00\x00$@\x00\x00\x00\x00\x00\x80&@\x00\x00\x00\x00\x00\x00)@\x00\x00\x00\x00\x00\x80+@\x00\x00\x00\x00\x00\x00.@\x00\x00\x00\x00\x00@0@'
tbsS'grid_y'
p46
g10
(g11
(I0
tS'b'
tRp47
(I1
(I7
tg14
I00
S'\x00\x00\x00\x00\x00\x00$\xc0\x00\x00\x00\x00\x00\x00\x1e\xc0\x00\x00\x00\x00\x00\x00\x14\xc0\x00\x00\x00\x00\x00\x00\x04\xc0\x00\x00\x00\x00\x00\x00\x00\x00\x00\x00\x00\x00\x00\x00\x04@\x00\x00\x00\x00\x00\x00\x14@'
tbsS'grid_x'
p48
g10
(g11
(I0
tS'b'
tRp49
(I1
(I7
tg14
I00
S'\x00\x00\x00\x00\x00\x00\x14\xc0\x00\x00\x00\x00\x00\x00\x04\xc0\x00\x00\x00\x00\x00\x00\x00\x00\x00\x00\x00\x00\x00\x00\x04@\x00\x00\x00\x00\x00\x00\x14@\x00\x00\x00\x00\x00\x00\x1e@\x00\x00\x00\x00\x00\x00$@'
tbsS'antigen_input_name'
p50
g32
sS'charmm_iterations'
p51
I5000
sS'solvation_files'
p52
(lp53
S'/gpfs/work/m/mfa5147/OptMAVEn_Zika/Optmaven-2.1.0/data/input_files/solvation.dat'
p54
asS'epitope_zmin_file'
p55
S'/gpfs/work/m/mfa5147/OptMAVEn_Zika/Optmaven-2.1.0/experiments/assemble2/structures/antigen_epitope_down.pdb'
p56
sS'name_contig'
p57
S'assemble2'
p58
sS'warnings'
p59
S'/gpfs/work/m/mfa5147/OptMAVEn_Zika/Optmaven-2.1.0/experiments/assemble2/warnings.txt'
p60
sS'parameter_files'
p61
(lp62
S'/gpfs/work/m/mfa5147/OptMAVEn_Zika/Optmaven-2.1.0/data/input_files/par_all27_prot_na.prm'
p63
asS'walltime'
p64
F0
sS'structure_directory'
p65
S'/gpfs/work/m/mfa5147/OptMAVEn_Zika/Optmaven-2.1.0/experiments/assemble2/structures'
p66
sg31
g58
sS'charmm_energy_terms'
p67
(lp68
S'angl'
p69
aS'bond'
p70
aS'dihe'
p71
aS'elec'
p72
aS'impr'
p73
aS'urey'
p74
aS'vdw'
p75
asS'temp'
p76
S'/gpfs/work/m/mfa5147/OptMAVEn_Zika/Optmaven-2.1.0/experiments/assemble2/.temp'
p77
sS'directory'
p78
S'/gpfs/work/m/mfa5147/OptMAVEn_Zika/Optmaven-2.1.0/experiments/assemble2'
p79
sS'antigen_relaxed_file'
p80
S'/gpfs/work/m/mfa5147/OptMAVEn_Zika/Optmaven-2.1.0/experiments/assemble2/structures/antigen_relaxed.pdb'
p81
sS'entire_input_name'
p82
S'entire_input_file'
p83
sb.